; ModuleID = 'source-C-CXX/35/1473.c'
source_filename = "source-C-CXX/35/1473.c"
target datalayout = "e-m:e-p270:32:32-p271:32:32-p272:64:64-i64:64-f80:128-n8:16:32:64-S128"
target triple = "x86_64-pc-linux-gnu"

@.str = private unnamed_addr constant [3 x i8] c"%s\00", align 1
@.str.1 = private unnamed_addr constant [4 x i8] c"YES\00", align 1
@.str.2 = private unnamed_addr constant [3 x i8] c"NO\00", align 1

; Function Attrs: nofree nounwind sspstrong uwtable
define dso_local i32 @main() local_unnamed_addr #0 {
  %1 = alloca [1005 x i8], align 16
  %2 = alloca [1005 x i8], align 16
  %3 = getelementptr inbounds [1005 x i8], [1005 x i8]* %1, i64 0, i64 0
  call void @llvm.lifetime.start.p0i8(i64 1005, i8* nonnull %3) #4
  %4 = getelementptr inbounds [1005 x i8], [1005 x i8]* %2, i64 0, i64 0
  call void @llvm.lifetime.start.p0i8(i64 1005, i8* nonnull %4) #4
  %5 = call i32 (i8*, ...) @__isoc99_scanf(i8* getelementptr inbounds ([3 x i8], [3 x i8]* @.str, i64 0, i64 0), i8* nonnull %3)
  %6 = call i32 (i8*, ...) @__isoc99_scanf(i8* getelementptr inbounds ([3 x i8], [3 x i8]* @.str, i64 0, i64 0), i8* nonnull %4)
  %7 = load i8, i8* %3, align 16
  %8 = icmp eq i8 %7, 0
  br i1 %8, label %66, label %11

9:                                                ; preds = %58
  %10 = load i8, i8* %3, align 16
  br label %11

11:                                               ; preds = %0, %9
  %12 = phi i8 [ %10, %9 ], [ 1, %0 ]
  %13 = phi i32 [ %60, %9 ], [ 0, %0 ]
  %14 = icmp eq i8 %12, 0
  br i1 %14, label %58, label %15

15:                                               ; preds = %11, %51
  %16 = phi i64 [ %55, %51 ], [ 0, %11 ]
  %17 = phi i32 [ %54, %51 ], [ 0, %11 ]
  %18 = phi i32 [ %52, %51 ], [ %13, %11 ]
  %19 = sext i32 %18 to i64
  %20 = getelementptr inbounds [1005 x i8], [1005 x i8]* %1, i64 0, i64 %19
  %21 = load i8, i8* %20, align 1, !tbaa !5
  %22 = getelementptr inbounds [1005 x i8], [1005 x i8]* %2, i64 0, i64 %16
  %23 = load i8, i8* %22, align 1, !tbaa !5
  %24 = icmp eq i8 %21, %23
  br i1 %24, label %25, label %51

25:                                               ; preds = %15
  %26 = call i64 @strlen(i8* noundef nonnull %3) #5
  %27 = icmp ugt i64 %26, %19
  br i1 %27, label %32, label %28

28:                                               ; preds = %32, %25
  %29 = sext i32 %17 to i64
  %30 = call i64 @strlen(i8* noundef nonnull %4) #5
  %31 = icmp ugt i64 %30, %29
  br i1 %31, label %40, label %48

32:                                               ; preds = %25, %32
  %33 = phi i64 [ %34, %32 ], [ %19, %25 ]
  %34 = add nsw i64 %33, 1
  %35 = getelementptr inbounds [1005 x i8], [1005 x i8]* %1, i64 0, i64 %34
  %36 = load i8, i8* %35, align 1, !tbaa !5
  %37 = getelementptr inbounds [1005 x i8], [1005 x i8]* %1, i64 0, i64 %33
  store i8 %36, i8* %37, align 1, !tbaa !5
  %38 = call i64 @strlen(i8* noundef nonnull %3) #5
  %39 = icmp ugt i64 %38, %34
  br i1 %39, label %32, label %28, !llvm.loop !8

40:                                               ; preds = %28, %40
  %41 = phi i64 [ %42, %40 ], [ %29, %28 ]
  %42 = add nsw i64 %41, 1
  %43 = getelementptr inbounds [1005 x i8], [1005 x i8]* %2, i64 0, i64 %42
  %44 = load i8, i8* %43, align 1, !tbaa !5
  %45 = getelementptr inbounds [1005 x i8], [1005 x i8]* %2, i64 0, i64 %41
  store i8 %44, i8* %45, align 1, !tbaa !5
  %46 = call i64 @strlen(i8* noundef nonnull %4) #5
  %47 = icmp ugt i64 %46, %42
  br i1 %47, label %40, label %48, !llvm.loop !10

48:                                               ; preds = %40, %28
  %49 = add nsw i32 %17, -1
  %50 = add nsw i32 %18, -1
  br label %51

51:                                               ; preds = %15, %48
  %52 = phi i32 [ %50, %48 ], [ %18, %15 ]
  %53 = phi i32 [ %49, %48 ], [ %17, %15 ]
  %54 = add nsw i32 %53, 1
  %55 = sext i32 %54 to i64
  %56 = call i64 @strlen(i8* noundef nonnull %3) #5
  %57 = icmp ugt i64 %56, %55
  br i1 %57, label %15, label %58, !llvm.loop !11

58:                                               ; preds = %51, %11
  %59 = phi i32 [ %13, %11 ], [ %52, %51 ]
  %60 = add nsw i32 %59, 1
  %61 = sext i32 %60 to i64
  %62 = call i64 @strlen(i8* noundef nonnull %3) #5
  %63 = icmp ugt i64 %62, %61
  br i1 %63, label %9, label %64, !llvm.loop !12

64:                                               ; preds = %58
  %65 = icmp eq i64 %62, 0
  br label %66

66:                                               ; preds = %64, %0
  %67 = phi i1 [ true, %0 ], [ %65, %64 ]
  %68 = load i8, i8* %4, align 16
  %69 = icmp eq i8 %68, 0
  %70 = select i1 %67, i1 %69, i1 false
  %71 = select i1 %70, i8* getelementptr inbounds ([4 x i8], [4 x i8]* @.str.1, i64 0, i64 0), i8* getelementptr inbounds ([3 x i8], [3 x i8]* @.str.2, i64 0, i64 0)
  %72 = call i32 (i8*, ...) @printf(i8* nonnull dereferenceable(1) %71)
  %73 = call i32 (i8*, ...) @__isoc99_scanf(i8* getelementptr inbounds ([3 x i8], [3 x i8]* @.str, i64 0, i64 0), i8* nonnull %3)
  call void @llvm.lifetime.end.p0i8(i64 1005, i8* nonnull %4) #4
  call void @llvm.lifetime.end.p0i8(i64 1005, i8* nonnull %3) #4
  ret i32 0
}

; Function Attrs: argmemonly mustprogress nofree nosync nounwind willreturn
declare void @llvm.lifetime.start.p0i8(i64 immarg, i8* nocapture) #1

; Function Attrs: nofree nounwind
declare noundef i32 @__isoc99_scanf(i8* nocapture noundef readonly, ...) local_unnamed_addr #2

; Function Attrs: argmemonly mustprogress nofree nounwind readonly willreturn
declare i64 @strlen(i8* nocapture) local_unnamed_addr #3

; Function Attrs: nofree nounwind
declare noundef i32 @printf(i8* nocapture noundef readonly, ...) local_unnamed_addr #2

; Function Attrs: argmemonly mustprogress nofree nosync nounwind willreturn
declare void @llvm.lifetime.end.p0i8(i64 immarg, i8* nocapture) #1


!llvm.module.flags = !{!0, !1, !2, !3}
!llvm.ident = !{!4}

!0 = !{i32 1, !"wchar_size", i32 4}
!1 = !{i32 7, !"PIC Level", i32 2}
!2 = !{i32 7, !"PIE Level", i32 2}
!3 = !{i32 7, !"uwtable", i32 1}
!4 = !{!"clang version 13.0.0"}
!5 = !{!6, !6, i64 0}
!6 = !{!"omnipotent char", !7, i64 0}
!7 = !{!"Simple C/C++ TBAA"}
!8 = distinct !{!8, !9}
!9 = !{!"llvm.loop.mustprogress"}
!10 = distinct !{!10, !9}
!11 = distinct !{!11, !9}
!12 = distinct !{!12, !9}
